target datalayout = "e-m:e-p270:32:32-p271:32:32-p272:64:64-i64:64-i128:128-f80:128-n8:16:32:64-S128"
target triple = "x86_64-pc-linux-gnu"

%struct.slurm_conf_t = type { i64, ptr, i16, ptr, ptr, ptr, ptr, ptr, i16, ptr, ptr, ptr, ptr, ptr, ptr, ptr, i16, ptr, ptr, ptr, ptr, i16, ptr, ptr, ptr, i64, ptr, ptr, ptr, ptr, i16, ptr, ptr, i16, i32, ptr, i32, ptr, i32, i32, ptr, ptr, i64, i64, ptr, i16, i16, ptr, i32, i32, ptr, i32, ptr, i32, i16, i16, i16, ptr, i16, i16, ptr, ptr, i32, i16, i16, ptr, i32, i16, ptr, ptr, ptr, ptr, i16, ptr, ptr, ptr, ptr, i32, ptr, ptr, ptr, ptr, i16, i16, ptr, i32, i32, i32, i16, i16, ptr, ptr, i16, ptr, ptr, i32, i32, i32, i32, i32, i64, i32, i32, i16, ptr, ptr, i32, ptr, ptr, ptr, i16, i32, ptr, ptr, i16, ptr, ptr, i32, i16, ptr, ptr, ptr, ptr, i32, i32, i16, i16, i32, ptr, i16, ptr, i32, i32, i32, i32, i32, i32, ptr, i16, ptr, ptr, i32, i16, ptr, i32, i16, i16, ptr, ptr, ptr, i16, ptr, ptr, ptr, ptr, i16, i16, ptr, i16, ptr, i16, ptr, i16, ptr, i16, ptr, ptr, ptr, ptr, i16, ptr, ptr, ptr, i32, ptr, i32, ptr, ptr, i16, ptr, ptr, i32, i16, ptr, ptr, i16, i16, ptr, i16, ptr, ptr, ptr, i32, ptr, i16, i16, ptr, ptr, ptr, ptr, ptr, ptr, ptr, ptr, i16, i32, i16, ptr, ptr, ptr, ptr, i32, ptr, ptr, ptr, i16, ptr, ptr, ptr, i16, ptr, i16, ptr, i16, i16, ptr }
%struct.data_s = type { i32, i32, %union.anon }
%union.anon = type { ptr }

@.str = private unnamed_addr constant [7 x i8] c"data.c\00", align 1
@__func__.data_new = private unnamed_addr constant [9 x i8] c"data_new\00", align 1
@slurm_conf = external global %struct.slurm_conf_t, align 8
@.str.1 = private unnamed_addr constant [18 x i8] c"DATA: %s: new %pD\00", align 1
@.str.16 = private unnamed_addr constant [1 x i8] zeroinitializer, align 1
@.str.22 = private unnamed_addr constant [44 x i8] c"DATA: %s: string %sat %pD=string@0x%lx[%zu]\00", align 1
@__func__.data_get_string_converted = private unnamed_addr constant [26 x i8] c"data_get_string_converted\00", align 1
@.str.23 = private unnamed_addr constant [23 x i8] c"conversion and cloned \00", align 1
@.str.24 = private unnamed_addr constant [39 x i8] c"DATA: %s: %pD string conversion failed\00", align 1

; Function Attrs: nounwind uwtable
define internal void @_check_data_list_magic(ptr noundef %0) #0 {
  %2 = alloca ptr, align 8
  store ptr %0, ptr %2, align 8
  ret void
}

; Function Attrs: nounwind uwtable
define dso_local ptr @data_get_string(ptr noundef %0) #0 {
  %2 = alloca ptr, align 8
  %3 = alloca ptr, align 8
  store ptr %0, ptr %3, align 8
  %4 = load ptr, ptr %3, align 8
  call void @_check_magic(ptr noundef %4)
  %5 = load ptr, ptr %3, align 8
  %6 = icmp ne ptr %5, null
  br i1 %6, label %8, label %7

7:                                                ; preds = %1
  store ptr null, ptr %2, align 8
  br label %27

8:                                                ; preds = %1
  %9 = load ptr, ptr %3, align 8
  %10 = getelementptr inbounds nuw %struct.data_s, ptr %9, i32 0, i32 1
  %11 = load i32, ptr %10, align 4
  %12 = icmp eq i32 %11, 65285
  br i1 %12, label %13, label %17

13:                                               ; preds = %8
  %14 = load ptr, ptr %3, align 8
  %15 = getelementptr inbounds nuw %struct.data_s, ptr %14, i32 0, i32 2
  %16 = load ptr, ptr %15, align 8
  store ptr %16, ptr %2, align 8
  br label %27

17:                                               ; preds = %8
  %18 = load ptr, ptr %3, align 8
  %19 = getelementptr inbounds nuw %struct.data_s, ptr %18, i32 0, i32 1
  %20 = load i32, ptr %19, align 4
  %21 = icmp eq i32 %20, 65286
  br i1 %21, label %22, label %26

22:                                               ; preds = %17
  %23 = load ptr, ptr %3, align 8
  %24 = getelementptr inbounds nuw %struct.data_s, ptr %23, i32 0, i32 2
  %25 = getelementptr inbounds [8 x i8], ptr %24, i64 0, i64 0
  store ptr %25, ptr %2, align 8
  br label %27

26:                                               ; preds = %17
  store ptr null, ptr %2, align 8
  br label %27

27:                                               ; preds = %26, %22, %13, %7
  %28 = load ptr, ptr %2, align 8
  ret ptr %28
}

; Function Attrs: nounwind uwtable
define dso_local ptr @data_new() #0 {
  %1 = alloca ptr, align 8
  call void @llvm.lifetime.start.p0(i64 8, ptr %1) #10
  %2 = call ptr @slurm_xcalloc(i64 noundef 1, i64 noundef 16, i1 noundef zeroext true, i1 noundef zeroext false, ptr noundef @.str, i32 noundef 389, ptr noundef @__func__.data_new)
  store ptr %2, ptr %1, align 8
  %3 = load ptr, ptr %1, align 8
  %4 = getelementptr inbounds nuw %struct.data_s, ptr %3, i32 0, i32 0
  store i32 429004959, ptr %4, align 8
  %5 = load ptr, ptr %1, align 8
  %6 = getelementptr inbounds nuw %struct.data_s, ptr %5, i32 0, i32 1
  store i32 65281, ptr %6, align 4
  br label %7

7:                                                ; preds = %0
  %8 = load i64, ptr getelementptr inbounds nuw (%struct.slurm_conf_t, ptr @slurm_conf, i32 0, i32 42), align 8
  %9 = and i64 %8, 256
  %10 = icmp ne i64 %9, 0
  br i1 %10, label %11, label %20

11:                                               ; preds = %7
  br label %12

12:                                               ; preds = %11
  %13 = call i32 @get_log_level()
  %14 = icmp sge i32 %13, 4
  br i1 %14, label %15, label %17

15:                                               ; preds = %12
  %16 = load ptr, ptr %1, align 8
  call void (i32, ptr, ...) @log_var(i32 noundef 4, ptr noundef @.str.1, ptr noundef @__func__.data_new, ptr noundef %16)
  br label %17

17:                                               ; preds = %15, %12
  br label %18

18:                                               ; preds = %17
  br label %19

19:                                               ; preds = %18
  br label %20

20:                                               ; preds = %19, %7
  br label %21

21:                                               ; preds = %20
  br label %22

22:                                               ; preds = %21
  %23 = load ptr, ptr %1, align 8
  call void @llvm.lifetime.end.p0(i64 8, ptr %1) #10
  ret ptr %23
}

; Function Attrs: nounwind uwtable
define internal void @_check_magic(ptr noundef %0) #0 {
  %2 = alloca ptr, align 8
  store ptr %0, ptr %2, align 8
  %3 = load ptr, ptr %2, align 8
  %4 = icmp ne ptr %3, null
  br i1 %4, label %6, label %5

5:                                                ; preds = %1
  br label %29

6:                                                ; preds = %1
  %7 = load i64, ptr getelementptr inbounds nuw (%struct.slurm_conf_t, ptr @slurm_conf, i32 0, i32 42), align 8
  %8 = and i64 %7, 256
  %9 = icmp ne i64 %8, 0
  br i1 %9, label %10, label %29

10:                                               ; preds = %6
  %11 = load ptr, ptr %2, align 8
  %12 = getelementptr inbounds nuw %struct.data_s, ptr %11, i32 0, i32 1
  %13 = load i32, ptr %12, align 4
  %14 = icmp eq i32 %13, 65282
  br i1 %14, label %15, label %19

15:                                               ; preds = %10
  %16 = load ptr, ptr %2, align 8
  %17 = getelementptr inbounds nuw %struct.data_s, ptr %16, i32 0, i32 2
  %18 = load ptr, ptr %17, align 8
  call void @_check_data_list_magic(ptr noundef %18)
  br label %19

19:                                               ; preds = %15, %10
  %20 = load ptr, ptr %2, align 8
  %21 = getelementptr inbounds nuw %struct.data_s, ptr %20, i32 0, i32 1
  %22 = load i32, ptr %21, align 4
  %23 = icmp eq i32 %22, 65283
  br i1 %23, label %24, label %28

24:                                               ; preds = %19
  %25 = load ptr, ptr %2, align 8
  %26 = getelementptr inbounds nuw %struct.data_s, ptr %25, i32 0, i32 2
  %27 = load ptr, ptr %26, align 8
  call void @_check_data_list_magic(ptr noundef %27)
  br label %28

28:                                               ; preds = %24, %19
  br label %29

29:                                               ; preds = %5, %28, %6
  ret void
}

; Function Attrs: nounwind uwtable
define dso_local i32 @data_get_string_converted(ptr noundef %0, ptr noundef %1) #0 {
  %3 = alloca i32, align 4
  %4 = alloca ptr, align 8
  %5 = alloca ptr, align 8
  %6 = alloca ptr, align 8
  %7 = alloca i8, align 1
  %8 = alloca i32, align 4
  %9 = alloca ptr, align 8
  store ptr %0, ptr %4, align 8
  store ptr %1, ptr %5, align 8
  %10 = load ptr, ptr %4, align 8
  call void @_check_magic(ptr noundef %10)
  call void @llvm.lifetime.start.p0(i64 8, ptr %6) #10
  store ptr null, ptr %6, align 8
  call void @llvm.lifetime.start.p0(i64 1, ptr %7) #10
  %11 = load ptr, ptr %4, align 8
  %12 = icmp ne ptr %11, null
  br i1 %12, label %13, label %16

13:                                               ; preds = %2
  %14 = load ptr, ptr %5, align 8
  %15 = icmp ne ptr %14, null
  br i1 %15, label %17, label %16

16:                                               ; preds = %13, %2
  store i32 9201, ptr %3, align 4
  store i32 1, ptr %8, align 4
  br label %99

17:                                               ; preds = %13
  %18 = load ptr, ptr %4, align 8
  %19 = getelementptr inbounds nuw %struct.data_s, ptr %18, i32 0, i32 1
  %20 = load i32, ptr %19, align 4
  %21 = icmp ne i32 %20, 65285
  br i1 %21, label %22, label %48

22:                                               ; preds = %17
  %23 = load ptr, ptr %4, align 8
  %24 = getelementptr inbounds nuw %struct.data_s, ptr %23, i32 0, i32 1
  %25 = load i32, ptr %24, align 4
  %26 = icmp ne i32 %25, 65286
  br i1 %26, label %27, label %48

27:                                               ; preds = %22
  call void @llvm.lifetime.start.p0(i64 8, ptr %9) #10
  %28 = call ptr @data_new()
  store ptr %28, ptr %9, align 8
  %29 = load ptr, ptr %9, align 8
  %30 = load ptr, ptr %4, align 8
  %31 = call ptr @data_copy(ptr noundef %29, ptr noundef %30)
  %32 = load ptr, ptr %9, align 8
  %33 = call i32 @data_convert_type(ptr noundef %32, i32 noundef 5)
  %34 = icmp eq i32 %33, 5
  br i1 %34, label %35, label %39

35:                                               ; preds = %27
  %36 = load ptr, ptr %9, align 8
  %37 = call ptr @data_get_string(ptr noundef %36)
  %38 = call ptr @xstrdup(ptr noundef %37)
  store ptr %38, ptr %6, align 8
  br label %39

39:                                               ; preds = %35, %27
  br label %40

40:                                               ; preds = %39
  %41 = load ptr, ptr %9, align 8
  %42 = icmp ne ptr %41, null
  br i1 %42, label %43, label %45

43:                                               ; preds = %40
  %44 = load ptr, ptr %9, align 8
  call void @data_free(ptr noundef %44)
  br label %45

45:                                               ; preds = %43, %40
  store ptr null, ptr %9, align 8
  br label %46

46:                                               ; preds = %45
  br label %47

47:                                               ; preds = %46
  store i8 1, ptr %7, align 1
  call void @llvm.lifetime.end.p0(i64 8, ptr %9) #10
  br label %57

48:                                               ; preds = %22, %17
  %49 = load ptr, ptr %4, align 8
  %50 = call ptr @data_get_string(ptr noundef %49)
  %51 = call ptr @xstrdup(ptr noundef %50)
  store ptr %51, ptr %6, align 8
  %52 = load ptr, ptr %6, align 8
  %53 = icmp ne ptr %52, null
  br i1 %53, label %56, label %54

54:                                               ; preds = %48
  %55 = call ptr @xstrdup(ptr noundef @.str.16)
  store ptr %55, ptr %6, align 8
  br label %56

56:                                               ; preds = %54, %48
  store i8 0, ptr %7, align 1
  br label %57

57:                                               ; preds = %56, %47
  %58 = load ptr, ptr %6, align 8
  %59 = icmp ne ptr %58, null
  br i1 %59, label %60, label %82

60:                                               ; preds = %57
  %61 = load ptr, ptr %6, align 8
  %62 = load ptr, ptr %5, align 8
  store ptr %61, ptr %62, align 8
  br label %63

63:                                               ; preds = %60
  %64 = load i64, ptr getelementptr inbounds nuw (%struct.slurm_conf_t, ptr @slurm_conf, i32 0, i32 42), align 8
  %65 = and i64 %64, 256
  %66 = icmp ne i64 %65, 0
  br i1 %66, label %67, label %79

67:                                               ; preds = %63
  %68 = load ptr, ptr %6, align 8
  %69 = load ptr, ptr %6, align 8
  %70 = call i64 @strlen(ptr noundef %69) #11
  %71 = load i8, ptr %7, align 1, !range !11, !noundef !12
  %72 = trunc i8 %71 to i1
  %73 = select i1 %72, ptr @.str.23, ptr @.str.16
  %74 = load ptr, ptr %4, align 8
  %75 = load ptr, ptr %6, align 8
  %76 = ptrtoint ptr %75 to i64
  %77 = load ptr, ptr %6, align 8
  %78 = call i64 @strlen(ptr noundef %77) #11
  call void (ptr, i64, i64, i64, ptr, ...) @_log_flag_hex(ptr noundef %68, i64 noundef %70, i64 noundef -1, i64 noundef -1, ptr noundef @.str.22, ptr noundef @__func__.data_get_string_converted, ptr noundef %73, ptr noundef %74, i64 noundef %76, i64 noundef %78)
  br label %79

79:                                               ; preds = %67, %63
  br label %80

80:                                               ; preds = %79
  br label %81

81:                                               ; preds = %80
  store i32 0, ptr %3, align 4
  store i32 1, ptr %8, align 4
  br label %99

82:                                               ; preds = %57
  br label %83

83:                                               ; preds = %82
  %84 = load i64, ptr getelementptr inbounds nuw (%struct.slurm_conf_t, ptr @slurm_conf, i32 0, i32 42), align 8
  %85 = and i64 %84, 256
  %86 = icmp ne i64 %85, 0
  br i1 %86, label %87, label %96

87:                                               ; preds = %83
  br label %88

88:                                               ; preds = %87
  %89 = call i32 @get_log_level()
  %90 = icmp sge i32 %89, 4
  br i1 %90, label %91, label %93

91:                                               ; preds = %88
  %92 = load ptr, ptr %4, align 8
  call void (i32, ptr, ...) @log_var(i32 noundef 4, ptr noundef @.str.24, ptr noundef @__func__.data_get_string_converted, ptr noundef %92)
  br label %93

93:                                               ; preds = %91, %88
  br label %94

94:                                               ; preds = %93
  br label %95

95:                                               ; preds = %94
  br label %96

96:                                               ; preds = %95, %83
  br label %97

97:                                               ; preds = %96
  br label %98

98:                                               ; preds = %97
  store i32 9202, ptr %3, align 4
  store i32 1, ptr %8, align 4
  br label %99

99:                                               ; preds = %98, %81, %16
  call void @llvm.lifetime.end.p0(i64 1, ptr %7) #10
  call void @llvm.lifetime.end.p0(i64 8, ptr %6) #10
  %100 = load i32, ptr %3, align 4
  ret i32 %100
}