; Function Attrs: nounwind uwtable
define dso_local range(i32 0, 9203) i32 @data_get_string_converted(ptr noundef %0, ptr noundef writeonly captures(address_is_null) %1) local_unnamed_addr #0 {
  %3 = icmp ne ptr %0, null
  %4 = icmp ne ptr %1, null
  %or.cond = and i1 %3, %4
  br i1 %or.cond, label %5, label %49

5:                                                ; preds = %2
  %6 = getelementptr inbounds nuw i8, ptr %0, i64 4
  %7 = load i32, ptr %6, align 4
  %.off = add i32 %7, -65285
  %switch = icmp ult i32 %.off, 2
  br i1 %switch, label %29, label %8

8:                                                ; preds = %5
  %9 = tail call ptr @slurm_xcalloc(i64 noundef 1, i64 noundef 16, i1 noundef zeroext true, i1 noundef zeroext false, ptr noundef nonnull @.str, i32 noundef 389, ptr noundef nonnull @__func__.data_new) #16
  store i32 429004959, ptr %9, align 8
  %10 = getelementptr inbounds nuw i8, ptr %9, i64 4
  store i32 65281, ptr %10, align 4
  %11 = load i64, ptr getelementptr inbounds nuw (i8, ptr @slurm_conf, i64 320), align 8
  %12 = and i64 %11, 256
  %.not.i = icmp eq i64 %12, 0
  br i1 %.not.i, label %data_new.exit, label %13

13:                                               ; preds = %8
  %14 = tail call i32 @get_log_level() #16
  %15 = icmp sgt i32 %14, 3
  br i1 %15, label %16, label %data_new.exit

16:                                               ; preds = %13
  tail call void (i32, ptr, ...) @log_var(i32 noundef 4, ptr noundef nonnull @.str.1, ptr noundef nonnull @__func__.data_new, ptr noundef nonnull %9) #16
  br label %data_new.exit

data_new.exit:                                    ; preds = %8, %13, %16
  %17 = tail call ptr @data_copy(ptr noundef nonnull %9, ptr noundef nonnull %0)
  %18 = tail call i32 @data_convert_type(ptr noundef nonnull %9, i32 noundef 5)
  %19 = icmp eq i32 %18, 5
  br i1 %19, label %20, label %28

20:                                               ; preds = %data_new.exit
  %21 = load i32, ptr %10, align 4
  switch i32 %21, label %data_get_string.exit [
    i32 65285, label %22
    i32 65286, label %25
  ]

22:                                               ; preds = %20
  %23 = getelementptr inbounds nuw i8, ptr %9, i64 8
  %24 = load ptr, ptr %23, align 8
  br label %data_get_string.exit

25:                                               ; preds = %20
  %26 = getelementptr inbounds nuw i8, ptr %9, i64 8
  br label %data_get_string.exit

data_get_string.exit:                             ; preds = %20, %22, %25
  %.0.i = phi ptr [ %24, %22 ], [ %26, %25 ], [ null, %20 ]
  %27 = tail call ptr @xstrdup(ptr noundef %.0.i) #16
  br label %28

28:                                               ; preds = %data_get_string.exit, %data_new.exit
  %.024 = phi ptr [ %27, %data_get_string.exit ], [ null, %data_new.exit ]
  tail call void @data_free(ptr noundef nonnull %9)
  br label %36

29:                                               ; preds = %5
  %switch47 = icmp eq i32 %7, 65285
  %30 = getelementptr inbounds nuw i8, ptr %0, i64 8
  br i1 %switch47, label %31, label %data_get_string.exit40

31:                                               ; preds = %29
  %32 = load ptr, ptr %30, align 8
  br label %data_get_string.exit40

data_get_string.exit40:                           ; preds = %29, %31
  %.0.i39 = phi ptr [ %32, %31 ], [ %30, %29 ]
  %33 = tail call ptr @xstrdup(ptr noundef %.0.i39) #16
  %.not32 = icmp eq ptr %33, null
  br i1 %.not32, label %34, label %.thread

34:                                               ; preds = %data_get_string.exit40
  %35 = tail call ptr @xstrdup(ptr noundef nonnull @.str.16) #16
  br label %36

36:                                               ; preds = %34, %28
  %.1 = phi ptr [ %.024, %28 ], [ %35, %34 ]
  %.0 = phi ptr [ @.str.23, %28 ], [ @.str.16, %34 ]
  %.not34 = icmp eq ptr %.1, null
  br i1 %.not34, label %42, label %.thread

.thread:                                          ; preds = %data_get_string.exit40, %36
  %.045 = phi ptr [ %.0, %36 ], [ @.str.16, %data_get_string.exit40 ]
  %.144 = phi ptr [ %.1, %36 ], [ %33, %data_get_string.exit40 ]
  store ptr %.144, ptr %1, align 8
  %37 = load i64, ptr getelementptr inbounds nuw (i8, ptr @slurm_conf, i64 320), align 8
  %38 = and i64 %37, 256
  %.not36 = icmp eq i64 %38, 0
  br i1 %.not36, label %49, label %39

39:                                               ; preds = %.thread
  %40 = tail call i64 @strlen(ptr noundef nonnull dereferenceable(1) %.144) #17
  %41 = ptrtoint ptr %.144 to i64
  tail call void (ptr, i64, i64, i64, ptr, ...) @_log_flag_hex(ptr noundef nonnull %.144, i64 noundef %40, i64 noundef -1, i64 noundef -1, ptr noundef nonnull @.str.22, ptr noundef nonnull @__func__.data_get_string_converted, ptr noundef nonnull %.045, ptr noundef nonnull %0, i64 noundef %41, i64 noundef %40) #16
  br label %49

42:                                               ; preds = %36
  %43 = load i64, ptr getelementptr inbounds nuw (i8, ptr @slurm_conf, i64 320), align 8
  %44 = and i64 %43, 256
  %.not35 = icmp eq i64 %44, 0
  br i1 %.not35, label %49, label %45

45:                                               ; preds = %42
  %46 = tail call i32 @get_log_level() #16
  %47 = icmp sgt i32 %46, 3
  br i1 %47, label %48, label %49

48:                                               ; preds = %45
  tail call void (i32, ptr, ...) @log_var(i32 noundef 4, ptr noundef nonnull @.str.24, ptr noundef nonnull @__func__.data_get_string_converted, ptr noundef nonnull %0) #16
  br label %49

49:                                               ; preds = %42, %48, %45, %.thread, %39, %2
  %.025 = phi i32 [ 9201, %2 ], [ 0, %39 ], [ 0, %.thread ], [ 9202, %45 ], [ 9202, %48 ], [ 9202, %42 ]
  ret i32 %.025
}